; ModuleID = '57/3047.c'
source_filename = "57/3047.c"
target datalayout = "e-m:e-p270:32:32-p271:32:32-p272:64:64-i64:64-f80:128-n8:16:32:64-S128"
target triple = "x86_64-pc-linux-gnu"

@.str = private unnamed_addr constant [3 x i8] c"%d\00", align 1
@.str.1 = private unnamed_addr constant [3 x i8] c"%s\00", align 1
@.str.2 = private unnamed_addr constant [2 x i8] c"r\00", align 1
@.str.3 = private unnamed_addr constant [2 x i8] c"y\00", align 1
@.str.4 = private unnamed_addr constant [2 x i8] c"g\00", align 1
@.str.5 = private unnamed_addr constant [4 x i8] c"%s\0A\00", align 1

; Function Attrs: noinline nounwind uwtable
define dso_local i32 @main() #0 {
  %1 = alloca i32, align 4
  %2 = alloca i32, align 4
  %3 = alloca i32, align 4
  %4 = alloca i32, align 4
  %5 = alloca [101 x i8], align 16
  store i32 0, i32* %1, align 4
  %6 = call i32 (i8*, ...) @__isoc99_scanf(i8* getelementptr inbounds ([3 x i8], [3 x i8]* @.str, i64 0, i64 0), i32* %2)
  store i32 0, i32* %3, align 4
  br label %7

7:                                                ; preds = %84, %0
  %8 = load i32, i32* %3, align 4
  %9 = load i32, i32* %2, align 4
  %10 = icmp slt i32 %8, %9
  br i1 %10, label %11, label %87

11:                                               ; preds = %7
  %12 = getelementptr inbounds [101 x i8], [101 x i8]* %5, i64 0, i64 0
  %13 = call i32 (i8*, ...) @__isoc99_scanf(i8* getelementptr inbounds ([3 x i8], [3 x i8]* @.str.1, i64 0, i64 0), i8* %12)
  %14 = getelementptr inbounds [101 x i8], [101 x i8]* %5, i64 0, i64 0
  %15 = call i64 @strlen(i8* %14) #3
  %16 = trunc i64 %15 to i32
  store i32 %16, i32* %4, align 4
  %17 = load i32, i32* %4, align 4
  %18 = sub nsw i32 %17, 1
  %19 = sext i32 %18 to i64
  %20 = getelementptr inbounds [101 x i8], [101 x i8]* %5, i64 0, i64 %19
  %21 = call i32 @strcmp(i8* %20, i8* getelementptr inbounds ([2 x i8], [2 x i8]* @.str.2, i64 0, i64 0)) #3
  %22 = icmp eq i32 %21, 0
  br i1 %22, label %23, label %37

23:                                               ; preds = %11
  %24 = load i32, i32* %4, align 4
  %25 = sub nsw i32 %24, 2
  %26 = sext i32 %25 to i64
  %27 = getelementptr inbounds [101 x i8], [101 x i8]* %5, i64 0, i64 %26
  %28 = load i8, i8* %27, align 1
  %29 = sext i8 %28 to i32
  %30 = sub nsw i32 %29, 101
  %31 = add nsw i32 %30, 0
  %32 = trunc i32 %31 to i8
  %33 = load i32, i32* %4, align 4
  %34 = sub nsw i32 %33, 2
  %35 = sext i32 %34 to i64
  %36 = getelementptr inbounds [101 x i8], [101 x i8]* %5, i64 0, i64 %35
  store i8 %32, i8* %36, align 1
  br label %81

37:                                               ; preds = %11
  %38 = load i32, i32* %4, align 4
  %39 = sub nsw i32 %38, 1
  %40 = sext i32 %39 to i64
  %41 = getelementptr inbounds [101 x i8], [101 x i8]* %5, i64 0, i64 %40
  %42 = call i32 @strcmp(i8* %41, i8* getelementptr inbounds ([2 x i8], [2 x i8]* @.str.3, i64 0, i64 0)) #3
  %43 = icmp eq i32 %42, 0
  br i1 %43, label %44, label %58

44:                                               ; preds = %37
  %45 = load i32, i32* %4, align 4
  %46 = sub nsw i32 %45, 2
  %47 = sext i32 %46 to i64
  %48 = getelementptr inbounds [101 x i8], [101 x i8]* %5, i64 0, i64 %47
  %49 = load i8, i8* %48, align 1
  %50 = sext i8 %49 to i32
  %51 = sub nsw i32 %50, 108
  %52 = add nsw i32 %51, 0
  %53 = trunc i32 %52 to i8
  %54 = load i32, i32* %4, align 4
  %55 = sub nsw i32 %54, 2
  %56 = sext i32 %55 to i64
  %57 = getelementptr inbounds [101 x i8], [101 x i8]* %5, i64 0, i64 %56
  store i8 %53, i8* %57, align 1
  br label %80

58:                                               ; preds = %37
  %59 = load i32, i32* %4, align 4
  %60 = sub nsw i32 %59, 1
  %61 = sext i32 %60 to i64
  %62 = getelementptr inbounds [101 x i8], [101 x i8]* %5, i64 0, i64 %61
  %63 = call i32 @strcmp(i8* %62, i8* getelementptr inbounds ([2 x i8], [2 x i8]* @.str.4, i64 0, i64 0)) #3
  %64 = icmp eq i32 %63, 0
  br i1 %64, label %65, label %79

65:                                               ; preds = %58
  %66 = load i32, i32* %4, align 4
  %67 = sub nsw i32 %66, 3
  %68 = sext i32 %67 to i64
  %69 = getelementptr inbounds [101 x i8], [101 x i8]* %5, i64 0, i64 %68
  %70 = load i8, i8* %69, align 1
  %71 = sext i8 %70 to i32
  %72 = sub nsw i32 %71, 105
  %73 = add nsw i32 %72, 0
  %74 = trunc i32 %73 to i8
  %75 = load i32, i32* %4, align 4
  %76 = sub nsw i32 %75, 3
  %77 = sext i32 %76 to i64
  %78 = getelementptr inbounds [101 x i8], [101 x i8]* %5, i64 0, i64 %77
  store i8 %74, i8* %78, align 1
  br label %79

79:                                               ; preds = %65, %58
  br label %80

80:                                               ; preds = %79, %44
  br label %81

81:                                               ; preds = %80, %23
  %82 = getelementptr inbounds [101 x i8], [101 x i8]* %5, i64 0, i64 0
  %83 = call i32 (i8*, ...) @printf(i8* getelementptr inbounds ([4 x i8], [4 x i8]* @.str.5, i64 0, i64 0), i8* %82)
  br label %84

84:                                               ; preds = %81
  %85 = load i32, i32* %3, align 4
  %86 = add nsw i32 %85, 1
  store i32 %86, i32* %3, align 4
  br label %7

87:                                               ; preds = %7
  ret i32 0
}

declare dso_local i32 @__isoc99_scanf(i8*, ...) #1

; Function Attrs: nounwind readonly
declare dso_local i64 @strlen(i8*) #2

; Function Attrs: nounwind readonly
declare dso_local i32 @strcmp(i8*, i8*) #2

declare dso_local i32 @printf(i8*, ...) #1


!llvm.module.flags = !{!0}
!llvm.ident = !{!1}

!0 = !{i32 1, !"wchar_size", i32 4}
!1 = !{!"clang version 10.0.0-4ubuntu1 "}
